; Function Attrs: mustprogress uwtable
define dso_local void @_ZN21btSimpleDynamicsWorld19integrateTransformsEf(ptr nocapture noundef nonnull readonly align 8 dereferenceable(308) %this, float noundef %timeStep) local_unnamed_addr #1 align 2 {
entry:
  %predictedTrans = alloca %class.btTransform, align 4
  %m_size.i = getelementptr inbounds i8, ptr %this, i64 12
  %0 = load i32, ptr %m_size.i, align 4
  %cmp9 = icmp sgt i32 %0, 0
  br i1 %cmp9, label %for.body.lr.ph, label %for.end

for.body.lr.ph:                                   ; preds = %entry
  %m_data.i = getelementptr inbounds i8, ptr %this, i64 24
  br label %for.body

for.body:                                         ; preds = %for.body.lr.ph, %for.inc
  %1 = phi i32 [ %0, %for.body.lr.ph ], [ %7, %for.inc ]
  %indvars.iv = phi i64 [ 0, %for.body.lr.ph ], [ %indvars.iv.next, %for.inc ]
  %2 = load ptr, ptr %m_data.i, align 8
  %arrayidx.i = getelementptr inbounds ptr, ptr %2, i64 %indvars.iv
  %3 = load ptr, ptr %arrayidx.i, align 8
  %m_internalType.i.i = getelementptr inbounds i8, ptr %3, i64 272
  %4 = load i32, ptr %m_internalType.i.i, align 8
  %and.i = and i32 %4, 2
  %tobool.not.i = icmp eq i32 %and.i, 0
  %tobool.not8 = icmp eq ptr %3, null
  %tobool.not = or i1 %tobool.not8, %tobool.not.i
  br i1 %tobool.not, label %for.inc, label %if.then

if.then:                                          ; preds = %for.body
  %m_activationState1.i.i = getelementptr inbounds i8, ptr %3, i64 240
  %5 = load i32, ptr %m_activationState1.i.i, align 8
  switch i32 %5, label %land.lhs.true [
    i32 6, label %for.inc
    i32 2, label %for.inc
    i32 5, label %for.inc
  ]

land.lhs.true:                                    ; preds = %if.then
  %m_collisionFlags.i = getelementptr inbounds i8, ptr %3, i64 224
  %6 = load i32, ptr %m_collisionFlags.i, align 8
  %and.i7 = and i32 %6, 1
  %cmp.i.not = icmp eq i32 %and.i7, 0
  br i1 %cmp.i.not, label %if.then7, label %for.inc

if.then7:                                         ; preds = %land.lhs.true
  call void @_ZN11btRigidBody26predictIntegratedTransformEfR11btTransform(ptr noundef nonnull align 8 dereferenceable(744) %3, float noundef %timeStep, ptr noundef nonnull align 4 dereferenceable(64) %predictedTrans)
  call void @_ZN11btRigidBody18proceedToTransformERK11btTransform(ptr noundef nonnull align 8 dereferenceable(744) %3, ptr noundef nonnull align 4 dereferenceable(64) %predictedTrans)
  %.pre = load i32, ptr %m_size.i, align 4
  br label %for.inc

for.inc:                                          ; preds = %if.then, %if.then, %if.then, %for.body, %if.then7, %land.lhs.true
  %7 = phi i32 [ %1, %if.then ], [ %1, %if.then ], [ %1, %if.then ], [ %1, %for.body ], [ %.pre, %if.then7 ], [ %1, %land.lhs.true ]
  %indvars.iv.next = add nuw nsw i64 %indvars.iv, 1
  %8 = sext i32 %7 to i64
  %cmp = icmp slt i64 %indvars.iv.next, %8
  br i1 %cmp, label %for.body, label %for.end, !llvm.loop !5

for.end:                                          ; preds = %for.inc, %entry
  ret void
}